target datalayout = "e-m:e-p270:32:32-p271:32:32-p272:64:64-i64:64-i128:128-f80:128-n8:16:32:64-S128"
target triple = "x86_64-pc-linux-gnu"

%struct.strbuf = type { i64, i64, ptr }

@__const.set_git_dir.realpath = private unnamed_addr constant %struct.strbuf { i64 0, i64 0, ptr @strbuf_slopbuf }, align 8
@.str.62 = private unnamed_addr constant [8 x i8] c"GIT_DIR\00", align 1

; Function Attrs: inlinehint nounwind uwtable
define internal i32 @git_has_dos_drive_prefix(ptr noundef %0) #2 {
  %2 = alloca ptr, align 8
  store ptr %0, ptr %2, align 8, !tbaa !4
  ret i32 0
}

; Function Attrs: inlinehint nounwind uwtable
define internal i32 @git_is_dir_sep(i32 noundef %0) #2 {
  %2 = alloca i32, align 4
  store i32 %0, ptr %2, align 4, !tbaa !9
  %3 = load i32, ptr %2, align 4, !tbaa !9
  %4 = icmp eq i32 %3, 47
  %5 = zext i1 %4 to i32
  ret i32 %5
}

; Function Attrs: inlinehint nounwind uwtable
define internal i32 @is_absolute_path(ptr noundef %0) #2 {
  %2 = alloca ptr, align 8
  store ptr %0, ptr %2, align 8, !tbaa !4
  %3 = load ptr, ptr %2, align 8, !tbaa !4
  %4 = getelementptr inbounds i8, ptr %3, i64 0
  %5 = load i8, ptr %4, align 1, !tbaa !13
  %6 = sext i8 %5 to i32
  %7 = call i32 @git_is_dir_sep(i32 noundef %6)
  %8 = icmp ne i32 %7, 0
  br i1 %8, label %13, label %9

9:                                                ; preds = %1
  %10 = load ptr, ptr %2, align 8, !tbaa !4
  %11 = call i32 @git_has_dos_drive_prefix(ptr noundef %10)
  %12 = icmp ne i32 %11, 0
  br label %13

13:                                               ; preds = %9, %1
  %14 = phi i1 [ true, %1 ], [ %12, %9 ]
  %15 = zext i1 %14 to i32
  ret i32 %15
}

; Function Attrs: nounwind uwtable
define internal void @set_git_dir_1(ptr noundef %0) #0 {
  %2 = alloca ptr, align 8
  store ptr %0, ptr %2, align 8, !tbaa !4
  %3 = load ptr, ptr %2, align 8, !tbaa !4
  call void @xsetenv(ptr noundef @.str.62, ptr noundef %3, i32 noundef 1)
  %4 = load ptr, ptr %2, align 8, !tbaa !4
  call void @setup_git_env(ptr noundef %4)
  ret void
}

; Function Attrs: nounwind uwtable
define dso_local void @set_git_dir(ptr noundef %0, i32 noundef %1) #0 {
  %3 = alloca ptr, align 8
  %4 = alloca i32, align 4
  %5 = alloca %struct.strbuf, align 8
  store ptr %0, ptr %3, align 8, !tbaa !4
  store i32 %1, ptr %4, align 4, !tbaa !9
  call void @llvm.lifetime.start.p0(i64 24, ptr %5) #13
  call void @llvm.memcpy.p0.p0.i64(ptr align 8 %5, ptr align 8 @__const.set_git_dir.realpath, i64 24, i1 false)
  %6 = load i32, ptr %4, align 4, !tbaa !9
  %7 = icmp ne i32 %6, 0
  br i1 %7, label %8, label %13

8:                                                ; preds = %2
  %9 = load ptr, ptr %3, align 8, !tbaa !4
  %10 = call ptr @strbuf_realpath(ptr noundef %5, ptr noundef %9, i32 noundef 1)
  %11 = getelementptr inbounds nuw %struct.strbuf, ptr %5, i32 0, i32 2
  %12 = load ptr, ptr %11, align 8, !tbaa !18
  store ptr %12, ptr %3, align 8, !tbaa !4
  br label %13

13:                                               ; preds = %8, %2
  %14 = load ptr, ptr %3, align 8, !tbaa !4
  call void @set_git_dir_1(ptr noundef %14)
  %15 = load ptr, ptr %3, align 8, !tbaa !4
  %16 = call i32 @is_absolute_path(ptr noundef %15)
  %17 = icmp ne i32 %16, 0
  br i1 %17, label %19, label %18

18:                                               ; preds = %13
  call void @chdir_notify_register(ptr noundef null, ptr noundef @update_relative_gitdir, ptr noundef null)
  br label %19

19:                                               ; preds = %18, %13
  call void @strbuf_release(ptr noundef %5)
  call void @llvm.lifetime.end.p0(i64 24, ptr %5) #13
  ret void
}