; Function Attrs: nounwind uwtable
define dso_local void @set_git_dir(ptr noundef %0, i32 noundef %1) local_unnamed_addr #0 {
  %3 = alloca %struct.strbuf, align 8
  call void @llvm.lifetime.start.p0(i64 24, ptr nonnull %3) #25
  call void @llvm.memcpy.p0.p0.i64(ptr noundef nonnull align 8 dereferenceable(24) %3, ptr noundef nonnull align 8 dereferenceable(24) @__const.create_object_directory.path, i64 24, i1 false)
  %.not = icmp eq i32 %1, 0
  br i1 %.not, label %8, label %4

4:                                                ; preds = %2
  %5 = call ptr @strbuf_realpath(ptr noundef nonnull %3, ptr noundef %0, i32 noundef 1) #25
  %6 = getelementptr inbounds nuw i8, ptr %3, i64 16
  %7 = load ptr, ptr %6, align 8, !tbaa !14
  br label %8

8:                                                ; preds = %4, %2
  %.0 = phi ptr [ %7, %4 ], [ %0, %2 ]
  call void @xsetenv(ptr noundef nonnull @.str.62, ptr noundef %.0, i32 noundef 1) #25
  call void @setup_git_env(ptr noundef %.0)
  %.0.val = load i8, ptr %.0, align 1, !tbaa !4
  %.not4 = icmp eq i8 %.0.val, 47
  br i1 %.not4, label %10, label %9

9:                                                ; preds = %8
  call void @chdir_notify_register(ptr noundef null, ptr noundef nonnull @update_relative_gitdir, ptr noundef null) #25
  br label %10

10:                                               ; preds = %9, %8
  call void @strbuf_release(ptr noundef nonnull %3) #25
  call void @llvm.lifetime.end.p0(i64 24, ptr nonnull %3) #25
  ret void
}